; Function Attrs: mustprogress nounwind uwtable
define dso_local void @_ZN4llvm3vfs6Status15copyWithNewNameERKS1_RKNS_5TwineE(ptr dead_on_unwind noalias writable sret(%"class.llvm::vfs::Status") align 8 %0, ptr nocapture noundef nonnull readonly align 8 dereferenceable(81) %1, ptr noundef nonnull align 8 dereferenceable(34) %2) local_unnamed_addr #0 align 2 {
  %4 = getelementptr inbounds nuw i8, ptr %1, i64 32
  %.sroa.0.0.copyload.i = load i64, ptr %4, align 8
  %.sroa.2.0..sroa_idx.i = getelementptr inbounds i8, ptr %1, i64 40
  %.sroa.2.0.copyload.i = load i64, ptr %.sroa.2.0..sroa_idx.i, align 8
  %5 = getelementptr inbounds nuw i8, ptr %1, i64 48
  %.sroa.0.0.copyload.i9 = load i64, ptr %5, align 8
  %6 = getelementptr inbounds nuw i8, ptr %1, i64 56
  %7 = load i32, ptr %6, align 8
  %8 = getelementptr inbounds nuw i8, ptr %1, i64 60
  %9 = load i32, ptr %8, align 4
  %10 = getelementptr inbounds nuw i8, ptr %1, i64 64
  %11 = load i64, ptr %10, align 8
  %12 = getelementptr inbounds nuw i8, ptr %1, i64 72
  %13 = load i32, ptr %12, align 8
  %14 = getelementptr inbounds nuw i8, ptr %1, i64 76
  %15 = load i32, ptr %14, align 4
  tail call void @_ZN4llvm3vfs6StatusC1ERKNS_5TwineENS_3sys2fs8UniqueIDENSt6chrono10time_pointINS8_3_V212system_clockENS8_8durationIlSt5ratioILl1ELl1000000000EEEEEEjjmNS6_9file_typeENS6_5permsE(ptr noundef nonnull align 8 dereferenceable(81) %0, ptr noundef nonnull align 8 dereferenceable(34) %2, i64 %.sroa.0.0.copyload.i, i64 %.sroa.2.0.copyload.i, i64 %.sroa.0.0.copyload.i9, i32 noundef %7, i32 noundef %9, i64 noundef %11, i32 noundef %13, i32 noundef %15) #27
  ret void
}